; Function Attrs: mustprogress nofree norecurse nosync nounwind willreturn memory(argmem: readwrite) uwtable
define void @_ZN10StringList15RestorePositionEv(ptr nocapture noundef nonnull align 8 dereferenceable(184) %0) local_unnamed_addr #7 align 2 {
  %2 = getelementptr inbounds i8, ptr %0, i64 176
  %3 = load i64, ptr %2, align 8
  %.not = icmp eq i64 %3, 0
  br i1 %.not, label %10, label %4

4:                                                ; preds = %1
  %5 = add i64 %3, -1
  store i64 %5, ptr %2, align 8
  %6 = getelementptr inbounds i8, ptr %0, i64 48
  %7 = getelementptr inbounds [16 x i64], ptr %6, i64 0, i64 %5
  %8 = load i64, ptr %7, align 8
  %9 = getelementptr inbounds i8, ptr %0, i64 32
  store i64 %8, ptr %9, align 8
  br label %10

10:                                               ; preds = %4, %1
  ret void
}